target datalayout = "e-m:e-p270:32:32-p271:32:32-p272:64:64-i64:64-i128:128-f80:128-n8:16:32:64-S128"
target triple = "x86_64-pc-linux-gnu"

%struct.dfvm_value_t = type { i32, %union.anon, i32 }
%union.anon = type { ptr }
%struct.dfvm_insn_t = type { i32, i32, ptr, ptr, ptr }

; Function Attrs: nounwind uwtable
define internal void @dfvm_value_free(ptr noundef %0) #0 {
  %2 = alloca ptr, align 8
  store ptr %0, ptr %2, align 8
  %3 = load ptr, ptr %2, align 8
  %4 = getelementptr inbounds %struct.dfvm_value_t, ptr %3, i32 0, i32 0
  %5 = load i32, ptr %4, align 8
  switch i32 %5, label %19 [
    i32 1, label %6
    i32 7, label %10
    i32 9, label %14
    i32 0, label %18
    i32 2, label %18
    i32 3, label %18
    i32 4, label %18
    i32 5, label %18
    i32 6, label %18
    i32 8, label %18
  ]

6:                                                ; preds = %1
  %7 = load ptr, ptr %2, align 8
  %8 = getelementptr inbounds %struct.dfvm_value_t, ptr %7, i32 0, i32 1
  %9 = load ptr, ptr %8, align 8
  call void @g_ptr_array_unref(ptr noundef %9)
  br label %19

10:                                               ; preds = %1
  %11 = load ptr, ptr %2, align 8
  %12 = getelementptr inbounds %struct.dfvm_value_t, ptr %11, i32 0, i32 1
  %13 = load ptr, ptr %12, align 8
  call void @drange_free(ptr noundef %13)
  br label %19

14:                                               ; preds = %1
  %15 = load ptr, ptr %2, align 8
  %16 = getelementptr inbounds %struct.dfvm_value_t, ptr %15, i32 0, i32 1
  %17 = load ptr, ptr %16, align 8
  call void @ws_regex_free(ptr noundef %17)
  br label %19

18:                                               ; preds = %1, %1, %1, %1, %1, %1, %1
  br label %19

19:                                               ; preds = %18, %14, %10, %6, %1
  %20 = load ptr, ptr %2, align 8
  call void @g_free(ptr noundef %20)
  ret void
}

; Function Attrs: nounwind uwtable
define hidden void @dfvm_value_unref(ptr noundef %0) #0 {
  %2 = alloca ptr, align 8
  store ptr %0, ptr %2, align 8
  br label %3

3:                                                ; preds = %1
  br label %4

4:                                                ; preds = %3
  %5 = load ptr, ptr %2, align 8
  %6 = getelementptr inbounds %struct.dfvm_value_t, ptr %5, i32 0, i32 2
  %7 = load i32, ptr %6, align 8
  %8 = add i32 %7, -1
  store i32 %8, ptr %6, align 8
  %9 = load ptr, ptr %2, align 8
  %10 = getelementptr inbounds %struct.dfvm_value_t, ptr %9, i32 0, i32 2
  %11 = load i32, ptr %10, align 8
  %12 = icmp sgt i32 %11, 0
  br i1 %12, label %13, label %14

13:                                               ; preds = %4
  br label %16

14:                                               ; preds = %4
  %15 = load ptr, ptr %2, align 8
  call void @dfvm_value_free(ptr noundef %15)
  br label %16

16:                                               ; preds = %14, %13
  ret void
}

; Function Attrs: nounwind uwtable
define hidden void @dfvm_insn_free(ptr noundef %0) #0 {
  %2 = alloca ptr, align 8
  store ptr %0, ptr %2, align 8
  %3 = load ptr, ptr %2, align 8
  %4 = getelementptr inbounds %struct.dfvm_insn_t, ptr %3, i32 0, i32 2
  %5 = load ptr, ptr %4, align 8
  %6 = icmp ne ptr %5, null
  br i1 %6, label %7, label %11

7:                                                ; preds = %1
  %8 = load ptr, ptr %2, align 8
  %9 = getelementptr inbounds %struct.dfvm_insn_t, ptr %8, i32 0, i32 2
  %10 = load ptr, ptr %9, align 8
  call void @dfvm_value_unref(ptr noundef %10)
  br label %11

11:                                               ; preds = %7, %1
  %12 = load ptr, ptr %2, align 8
  %13 = getelementptr inbounds %struct.dfvm_insn_t, ptr %12, i32 0, i32 3
  %14 = load ptr, ptr %13, align 8
  %15 = icmp ne ptr %14, null
  br i1 %15, label %16, label %20

16:                                               ; preds = %11
  %17 = load ptr, ptr %2, align 8
  %18 = getelementptr inbounds %struct.dfvm_insn_t, ptr %17, i32 0, i32 3
  %19 = load ptr, ptr %18, align 8
  call void @dfvm_value_unref(ptr noundef %19)
  br label %20

20:                                               ; preds = %16, %11
  %21 = load ptr, ptr %2, align 8
  %22 = getelementptr inbounds %struct.dfvm_insn_t, ptr %21, i32 0, i32 4
  %23 = load ptr, ptr %22, align 8
  %24 = icmp ne ptr %23, null
  br i1 %24, label %25, label %29

25:                                               ; preds = %20
  %26 = load ptr, ptr %2, align 8
  %27 = getelementptr inbounds %struct.dfvm_insn_t, ptr %26, i32 0, i32 4
  %28 = load ptr, ptr %27, align 8
  call void @dfvm_value_unref(ptr noundef %28)
  br label %29

29:                                               ; preds = %25, %20
  %30 = load ptr, ptr %2, align 8
  call void @g_free(ptr noundef %30)
  ret void
}