; Function Attrs: nounwind uwtable
define hidden void @dfvm_insn_free(ptr noundef %0) local_unnamed_addr #2 {
  %2 = getelementptr inbounds nuw i8, ptr %0, i64 8
  %3 = load ptr, ptr %2, align 8
  %.not = icmp eq ptr %3, null
  br i1 %.not, label %dfvm_value_unref.exit, label %4

4:                                                ; preds = %1
  %5 = getelementptr inbounds nuw i8, ptr %3, i64 16
  %6 = load i32, ptr %5, align 8
  %7 = add i32 %6, -1
  store i32 %7, ptr %5, align 8
  %8 = icmp sgt i32 %7, 0
  br i1 %8, label %dfvm_value_unref.exit, label %9

9:                                                ; preds = %4
  %10 = load i32, ptr %3, align 8
  switch i32 %10, label %dfvm_value_free.exit.i [
    i32 1, label %11
    i32 7, label %14
    i32 9, label %17
  ]

11:                                               ; preds = %9
  %12 = getelementptr inbounds nuw i8, ptr %3, i64 8
  %13 = load ptr, ptr %12, align 8
  tail call void @g_ptr_array_unref(ptr noundef %13) #11
  br label %dfvm_value_free.exit.i

14:                                               ; preds = %9
  %15 = getelementptr inbounds nuw i8, ptr %3, i64 8
  %16 = load ptr, ptr %15, align 8
  tail call void @drange_free(ptr noundef %16) #11
  br label %dfvm_value_free.exit.i

17:                                               ; preds = %9
  %18 = getelementptr inbounds nuw i8, ptr %3, i64 8
  %19 = load ptr, ptr %18, align 8
  tail call void @ws_regex_free(ptr noundef %19) #11
  br label %dfvm_value_free.exit.i

dfvm_value_free.exit.i:                           ; preds = %17, %14, %11, %9
  tail call void @g_free(ptr noundef nonnull %3) #11
  br label %dfvm_value_unref.exit

dfvm_value_unref.exit:                            ; preds = %dfvm_value_free.exit.i, %4, %1
  %20 = getelementptr inbounds nuw i8, ptr %0, i64 16
  %21 = load ptr, ptr %20, align 8
  %.not9 = icmp eq ptr %21, null
  br i1 %.not9, label %dfvm_value_unref.exit12, label %22

22:                                               ; preds = %dfvm_value_unref.exit
  %23 = getelementptr inbounds nuw i8, ptr %21, i64 16
  %24 = load i32, ptr %23, align 8
  %25 = add i32 %24, -1
  store i32 %25, ptr %23, align 8
  %26 = icmp sgt i32 %25, 0
  br i1 %26, label %dfvm_value_unref.exit12, label %27

27:                                               ; preds = %22
  %28 = load i32, ptr %21, align 8
  switch i32 %28, label %dfvm_value_free.exit.i11 [
    i32 1, label %29
    i32 7, label %32
    i32 9, label %35
  ]

29:                                               ; preds = %27
  %30 = getelementptr inbounds nuw i8, ptr %21, i64 8
  %31 = load ptr, ptr %30, align 8
  tail call void @g_ptr_array_unref(ptr noundef %31) #11
  br label %dfvm_value_free.exit.i11

32:                                               ; preds = %27
  %33 = getelementptr inbounds nuw i8, ptr %21, i64 8
  %34 = load ptr, ptr %33, align 8
  tail call void @drange_free(ptr noundef %34) #11
  br label %dfvm_value_free.exit.i11

35:                                               ; preds = %27
  %36 = getelementptr inbounds nuw i8, ptr %21, i64 8
  %37 = load ptr, ptr %36, align 8
  tail call void @ws_regex_free(ptr noundef %37) #11
  br label %dfvm_value_free.exit.i11

dfvm_value_free.exit.i11:                         ; preds = %35, %32, %29, %27
  tail call void @g_free(ptr noundef nonnull %21) #11
  br label %dfvm_value_unref.exit12

dfvm_value_unref.exit12:                          ; preds = %dfvm_value_free.exit.i11, %22, %dfvm_value_unref.exit
  %38 = getelementptr inbounds nuw i8, ptr %0, i64 24
  %39 = load ptr, ptr %38, align 8
  %.not10 = icmp eq ptr %39, null
  br i1 %.not10, label %dfvm_value_unref.exit14, label %40

40:                                               ; preds = %dfvm_value_unref.exit12
  %41 = getelementptr inbounds nuw i8, ptr %39, i64 16
  %42 = load i32, ptr %41, align 8
  %43 = add i32 %42, -1
  store i32 %43, ptr %41, align 8
  %44 = icmp sgt i32 %43, 0
  br i1 %44, label %dfvm_value_unref.exit14, label %45

45:                                               ; preds = %40
  %46 = load i32, ptr %39, align 8
  switch i32 %46, label %dfvm_value_free.exit.i13 [
    i32 1, label %47
    i32 7, label %50
    i32 9, label %53
  ]

47:                                               ; preds = %45
  %48 = getelementptr inbounds nuw i8, ptr %39, i64 8
  %49 = load ptr, ptr %48, align 8
  tail call void @g_ptr_array_unref(ptr noundef %49) #11
  br label %dfvm_value_free.exit.i13

50:                                               ; preds = %45
  %51 = getelementptr inbounds nuw i8, ptr %39, i64 8
  %52 = load ptr, ptr %51, align 8
  tail call void @drange_free(ptr noundef %52) #11
  br label %dfvm_value_free.exit.i13

53:                                               ; preds = %45
  %54 = getelementptr inbounds nuw i8, ptr %39, i64 8
  %55 = load ptr, ptr %54, align 8
  tail call void @ws_regex_free(ptr noundef %55) #11
  br label %dfvm_value_free.exit.i13

dfvm_value_free.exit.i13:                         ; preds = %53, %50, %47, %45
  tail call void @g_free(ptr noundef nonnull %39) #11
  br label %dfvm_value_unref.exit14

dfvm_value_unref.exit14:                          ; preds = %dfvm_value_free.exit.i13, %40, %dfvm_value_unref.exit12
  tail call void @g_free(ptr noundef nonnull %0) #11
  ret void
}